target datalayout = "e-m:e-p270:32:32-p271:32:32-p272:64:64-i64:64-i128:128-f80:128-n8:16:32:64-S128"
target triple = "x86_64-pc-linux-gnu"

%union.__CONST_SOCKADDR_ARG = type { ptr }
%struct.sockaddr_storage = type { i16, [118 x i8], i64 }

@.str.12 = private unnamed_addr constant [39 x i8] c"Error creating slurm stream socket: %m\00", align 1
@.str.13 = private unnamed_addr constant [35 x i8] c"setsockopt SO_REUSEADDR failed: %m\00", align 1
@.str.14 = private unnamed_addr constant [38 x i8] c"Error binding slurm stream socket: %m\00", align 1
@.str.15 = private unnamed_addr constant [43 x i8] c"Error listening on slurm stream socket: %m\00", align 1

; Function Attrs: nounwind uwtable
define dso_local i32 @slurm_init_msg_engine(ptr noundef %0, i1 noundef zeroext %1) #0 {
  %3 = alloca i32, align 4
  %4 = alloca ptr, align 8
  %5 = alloca i8, align 1
  %6 = alloca i32, align 4
  %7 = alloca i32, align 4
  %8 = alloca i32, align 4
  %9 = alloca i32, align 4
  %10 = alloca i64, align 8
  %11 = alloca i32, align 4
  %12 = alloca %union.__CONST_SOCKADDR_ARG, align 8
  store ptr %0, ptr %4, align 8
  %13 = zext i1 %1 to i8
  store i8 %13, ptr %5, align 1
  call void @llvm.lifetime.start.p0(i64 4, ptr %6) #9
  call void @llvm.lifetime.start.p0(i64 4, ptr %7) #9
  call void @llvm.lifetime.start.p0(i64 4, ptr %8) #9
  store i32 2, ptr %8, align 4
  call void @llvm.lifetime.start.p0(i64 4, ptr %9) #9
  store i32 1, ptr %9, align 4
  call void @llvm.lifetime.start.p0(i64 8, ptr %10) #9
  store i64 4, ptr %10, align 8
  %14 = load i8, ptr %5, align 1, !range !14, !noundef !15
  %15 = trunc i8 %14 to i1
  br i1 %15, label %16, label %17

16:                                               ; preds = %2
  store i32 5, ptr %8, align 4
  br label %17

17:                                               ; preds = %16, %2
  %18 = load ptr, ptr %4, align 8
  %19 = getelementptr inbounds nuw %struct.sockaddr_storage, ptr %18, i32 0, i32 0
  %20 = load i16, ptr %19, align 8
  %21 = zext i16 %20 to i32
  %22 = call i32 @socket(i32 noundef %21, i32 noundef 524289, i32 noundef 6) #9
  store i32 %22, ptr %7, align 4
  %23 = icmp slt i32 %22, 0
  br i1 %23, label %24, label %35

24:                                               ; preds = %17
  br label %25

25:                                               ; preds = %24
  %26 = call i32 @get_log_level()
  %27 = load i32, ptr %8, align 4
  %28 = icmp sge i32 %26, %27
  br i1 %28, label %29, label %31

29:                                               ; preds = %25
  %30 = load i32, ptr %8, align 4
  call void (i32, ptr, ...) @log_var(i32 noundef %30, ptr noundef @.str.12)
  br label %31

31:                                               ; preds = %29, %25
  br label %32

32:                                               ; preds = %31
  br label %33

33:                                               ; preds = %32
  %34 = load i32, ptr %7, align 4
  store i32 %34, ptr %3, align 4
  store i32 1, ptr %11, align 4
  br label %88

35:                                               ; preds = %17
  %36 = load i32, ptr %7, align 4
  %37 = call i32 @setsockopt(i32 noundef %36, i32 noundef 1, i32 noundef 2, ptr noundef %9, i32 noundef 4) #9
  store i32 %37, ptr %6, align 4
  %38 = load i32, ptr %6, align 4
  %39 = icmp slt i32 %38, 0
  br i1 %39, label %40, label %50

40:                                               ; preds = %35
  br label %41

41:                                               ; preds = %40
  %42 = call i32 @get_log_level()
  %43 = load i32, ptr %8, align 4
  %44 = icmp sge i32 %42, %43
  br i1 %44, label %45, label %47

45:                                               ; preds = %41
  %46 = load i32, ptr %8, align 4
  call void (i32, ptr, ...) @log_var(i32 noundef %46, ptr noundef @.str.13)
  br label %47

47:                                               ; preds = %45, %41
  br label %48

48:                                               ; preds = %47
  br label %49

49:                                               ; preds = %48
  br label %84

50:                                               ; preds = %35
  %51 = load i32, ptr %7, align 4
  %52 = load ptr, ptr %4, align 8
  store ptr %52, ptr %12, align 8
  %53 = getelementptr inbounds nuw %union.__CONST_SOCKADDR_ARG, ptr %12, i32 0, i32 0
  %54 = load ptr, ptr %53, align 8
  %55 = call i32 @bind(i32 noundef %51, ptr %54, i32 noundef 128) #9
  store i32 %55, ptr %6, align 4
  %56 = load i32, ptr %6, align 4
  %57 = icmp slt i32 %56, 0
  br i1 %57, label %58, label %68

58:                                               ; preds = %50
  br label %59

59:                                               ; preds = %58
  %60 = call i32 @get_log_level()
  %61 = load i32, ptr %8, align 4
  %62 = icmp sge i32 %60, %61
  br i1 %62, label %63, label %65

63:                                               ; preds = %59
  %64 = load i32, ptr %8, align 4
  call void (i32, ptr, ...) @log_var(i32 noundef %64, ptr noundef @.str.14)
  br label %65

65:                                               ; preds = %63, %59
  br label %66

66:                                               ; preds = %65
  br label %67

67:                                               ; preds = %66
  br label %84

68:                                               ; preds = %50
  %69 = load i32, ptr %7, align 4
  %70 = call i32 @listen(i32 noundef %69, i32 noundef 4096) #9
  %71 = icmp slt i32 %70, 0
  br i1 %71, label %72, label %82

72:                                               ; preds = %68
  br label %73

73:                                               ; preds = %72
  %74 = call i32 @get_log_level()
  %75 = load i32, ptr %8, align 4
  %76 = icmp sge i32 %74, %75
  br i1 %76, label %77, label %79

77:                                               ; preds = %73
  %78 = load i32, ptr %8, align 4
  call void (i32, ptr, ...) @log_var(i32 noundef %78, ptr noundef @.str.15)
  br label %79

79:                                               ; preds = %77, %73
  br label %80

80:                                               ; preds = %79
  br label %81

81:                                               ; preds = %80
  store i32 -1, ptr %6, align 4
  br label %84

82:                                               ; preds = %68
  %83 = load i32, ptr %7, align 4
  store i32 %83, ptr %3, align 4
  store i32 1, ptr %11, align 4
  br label %88

84:                                               ; preds = %81, %67, %49
  %85 = load i32, ptr %7, align 4
  %86 = call i32 @close(i32 noundef %85)
  %87 = load i32, ptr %6, align 4
  store i32 %87, ptr %3, align 4
  store i32 1, ptr %11, align 4
  br label %88

88:                                               ; preds = %84, %82, %33
  call void @llvm.lifetime.end.p0(i64 8, ptr %10) #9
  call void @llvm.lifetime.end.p0(i64 4, ptr %9) #9
  call void @llvm.lifetime.end.p0(i64 4, ptr %8) #9
  call void @llvm.lifetime.end.p0(i64 4, ptr %7) #9
  call void @llvm.lifetime.end.p0(i64 4, ptr %6) #9
  %89 = load i32, ptr %3, align 4
  ret i32 %89
}