; Function Attrs: nounwind uwtable
define dso_local i32 @slurm_init_msg_engine(ptr noundef %0, i1 noundef zeroext %1) local_unnamed_addr #0 {
  %3 = alloca i32, align 4
  call void @llvm.lifetime.start.p0(i64 4, ptr nonnull %3) #11
  store i32 1, ptr %3, align 4
  %spec.select = select i1 %1, i32 5, i32 2
  %4 = load i16, ptr %0, align 8
  %5 = zext i16 %4 to i32
  %6 = tail call i32 @socket(i32 noundef %5, i32 noundef 524289, i32 noundef 6) #11
  %7 = icmp slt i32 %6, 0
  br i1 %7, label %8, label %11

8:                                                ; preds = %2
  %9 = tail call i32 @get_log_level() #11
  %.not27 = icmp slt i32 %9, %spec.select
  br i1 %.not27, label %28, label %10

10:                                               ; preds = %8
  tail call void (i32, ptr, ...) @log_var(i32 noundef %spec.select, ptr noundef nonnull @.str.12) #11
  br label %28

11:                                               ; preds = %2
  %12 = call i32 @setsockopt(i32 noundef %6, i32 noundef 1, i32 noundef 2, ptr noundef nonnull %3, i32 noundef 4) #11
  %13 = icmp slt i32 %12, 0
  br i1 %13, label %14, label %16

14:                                               ; preds = %11
  %15 = call i32 @get_log_level() #11
  %.not26 = icmp slt i32 %15, %spec.select
  br i1 %.not26, label %26, label %.sink.split

16:                                               ; preds = %11
  %17 = call i32 @bind(i32 noundef %6, ptr nonnull %0, i32 noundef 128) #11
  %18 = icmp slt i32 %17, 0
  br i1 %18, label %19, label %21

19:                                               ; preds = %16
  %20 = call i32 @get_log_level() #11
  %.not25 = icmp slt i32 %20, %spec.select
  br i1 %.not25, label %26, label %.sink.split

21:                                               ; preds = %16
  %22 = call i32 @listen(i32 noundef %6, i32 noundef 4096) #11
  %23 = icmp slt i32 %22, 0
  br i1 %23, label %24, label %28

24:                                               ; preds = %21
  %25 = call i32 @get_log_level() #11
  %.not = icmp slt i32 %25, %spec.select
  br i1 %.not, label %26, label %.sink.split

.sink.split:                                      ; preds = %24, %19, %14
  %.str.15.sink = phi ptr [ @.str.13, %14 ], [ @.str.14, %19 ], [ @.str.15, %24 ]
  %.020.ph = phi i32 [ %12, %14 ], [ %17, %19 ], [ -1, %24 ]
  call void (i32, ptr, ...) @log_var(i32 noundef %spec.select, ptr noundef nonnull %.str.15.sink) #11
  br label %26

26:                                               ; preds = %.sink.split, %24, %19, %14
  %.020 = phi i32 [ %12, %14 ], [ %17, %19 ], [ -1, %24 ], [ %.020.ph, %.sink.split ]
  %27 = call i32 @close(i32 noundef %6) #11
  br label %28

28:                                               ; preds = %21, %8, %10, %26
  %.0 = phi i32 [ %.020, %26 ], [ %6, %10 ], [ %6, %8 ], [ %6, %21 ]
  call void @llvm.lifetime.end.p0(i64 4, ptr nonnull %3) #11
  ret i32 %.0
}